; Function Attrs: nounwind uwtable
define internal fastcc ptr @make_intermediate(ptr noundef captures(none) initializes((48, 52)) %0) unnamed_addr #0 {
  %2 = getelementptr inbounds nuw i8, ptr %0, i64 56
  %3 = load ptr, ptr %2, align 8, !tbaa !22
  %4 = tail call ptr @PyUnicodeWriter_Finish(ptr noundef %3) #6
  store ptr null, ptr %2, align 8, !tbaa !22
  %5 = getelementptr inbounds nuw i8, ptr %0, i64 48
  store i32 1, ptr %5, align 8, !tbaa !62
  %6 = icmp eq ptr %4, null
  br i1 %6, label %Py_DECREF.exit16, label %7

7:                                                ; preds = %1
  %8 = tail call ptr @PyUnicodeWriter_Create(i64 noundef 0) #6
  store ptr %8, ptr %2, align 8, !tbaa !22
  %9 = icmp eq ptr %8, null
  br i1 %9, label %10, label %16

10:                                               ; preds = %7
  %11 = load i32, ptr %4, align 8, !tbaa !32
  %.not.i15 = icmp sgt i32 %11, -1
  br i1 %.not.i15, label %12, label %Py_DECREF.exit16

12:                                               ; preds = %10
  %13 = add nsw i32 %11, -1
  store i32 %13, ptr %4, align 8, !tbaa !32
  %14 = icmp eq i32 %13, 0
  br i1 %14, label %15, label %Py_DECREF.exit16

15:                                               ; preds = %12
  tail call void @_Py_Dealloc(ptr noundef nonnull %4) #6
  br label %Py_DECREF.exit16

16:                                               ; preds = %7
  %17 = tail call i32 @PyUnicodeWriter_WriteStr(ptr noundef nonnull %8, ptr noundef nonnull %4) #6
  %.not = icmp eq i32 %17, 0
  br i1 %.not, label %24, label %18

18:                                               ; preds = %16
  %19 = load i32, ptr %4, align 8, !tbaa !32
  %.not.i = icmp sgt i32 %19, -1
  br i1 %.not.i, label %20, label %Py_DECREF.exit16

20:                                               ; preds = %18
  %21 = add nsw i32 %19, -1
  store i32 %21, ptr %4, align 8, !tbaa !32
  %22 = icmp eq i32 %21, 0
  br i1 %22, label %23, label %Py_DECREF.exit16

23:                                               ; preds = %20
  tail call void @_Py_Dealloc(ptr noundef nonnull %4) #6
  br label %Py_DECREF.exit16

24:                                               ; preds = %16
  store i32 2, ptr %5, align 8, !tbaa !62
  br label %Py_DECREF.exit16

Py_DECREF.exit16:                                 ; preds = %23, %20, %18, %15, %12, %10, %1, %24
  %.0 = phi ptr [ %4, %24 ], [ null, %1 ], [ null, %10 ], [ null, %12 ], [ null, %15 ], [ null, %18 ], [ null, %20 ], [ null, %23 ]
  ret ptr %.0
}